target datalayout = "e-m:e-p270:32:32-p271:32:32-p272:64:64-i64:64-i128:128-f80:128-n8:16:32:64-S128"
target triple = "x86_64-pc-linux-gnu"

%struct.stringbuf_s = type { ptr, i64, i64, ptr }
%struct.editor_s = type { ptr, ptr, ptr, ptr, i64, i64, i64, i64, i8, i8, i64, ptr, ptr, ptr, ptr, ptr, ptr }

@.str.408 = private unnamed_addr constant [10 x i8] c"[ic-info]\00", align 1
@.str.409 = private unnamed_addr constant [12 x i8] c"[/ic-info]\0A\00", align 1

; Function Attrs: inlinehint nounwind uwtable
define internal i64 @to_ssize_t(i64 noundef %0) #4 {
  %2 = alloca i64, align 8
  store i64 %0, ptr %2, align 8, !tbaa !9
  %3 = load i64, ptr %2, align 8, !tbaa !9
  %4 = icmp ule i64 %3, 9223372036854775807
  br i1 %4, label %5, label %7

5:                                                ; preds = %1
  %6 = load i64, ptr %2, align 8, !tbaa !9
  br label %8

7:                                                ; preds = %1
  br label %8

8:                                                ; preds = %7, %5
  %9 = phi i64 [ %6, %5 ], [ 0, %7 ]
  ret i64 %9
}

; Function Attrs: inlinehint nounwind uwtable
define internal i64 @to_size_t(i64 noundef %0) #4 {
  %2 = alloca i64, align 8
  store i64 %0, ptr %2, align 8, !tbaa !9
  %3 = load i64, ptr %2, align 8, !tbaa !9
  %4 = icmp sge i64 %3, 0
  br i1 %4, label %5, label %7

5:                                                ; preds = %1
  %6 = load i64, ptr %2, align 8, !tbaa !9
  br label %8

7:                                                ; preds = %1
  br label %8

8:                                                ; preds = %7, %5
  %9 = phi i64 [ %6, %5 ], [ 0, %7 ]
  ret i64 %9
}

; Function Attrs: nounwind uwtable
define internal i64 @ic_strlen(ptr noundef %0) #0 {
  %2 = alloca i64, align 8
  %3 = alloca ptr, align 8
  store ptr %0, ptr %3, align 8, !tbaa !11
  %4 = load ptr, ptr %3, align 8, !tbaa !11
  %5 = icmp eq ptr %4, null
  br i1 %5, label %6, label %7

6:                                                ; preds = %1
  store i64 0, ptr %2, align 8
  br label %11

7:                                                ; preds = %1
  %8 = load ptr, ptr %3, align 8, !tbaa !11
  %9 = call i64 @strlen(ptr noundef %8) #14
  %10 = call i64 @to_ssize_t(i64 noundef %9)
  store i64 %10, ptr %2, align 8
  br label %11

11:                                               ; preds = %7, %6
  %12 = load i64, ptr %2, align 8
  ret i64 %12
}

; Function Attrs: nounwind uwtable
define internal void @ic_memmove(ptr noundef %0, ptr noundef %1, i64 noundef %2) #0 {
  %4 = alloca ptr, align 8
  %5 = alloca ptr, align 8
  %6 = alloca i64, align 8
  store ptr %0, ptr %4, align 8, !tbaa !51
  store ptr %1, ptr %5, align 8, !tbaa !51
  store i64 %2, ptr %6, align 8, !tbaa !9
  %7 = load i64, ptr %6, align 8, !tbaa !9
  %8 = icmp sle i64 %7, 0
  br i1 %8, label %9, label %10

9:                                                ; preds = %3
  br label %15

10:                                               ; preds = %3
  %11 = load ptr, ptr %4, align 8, !tbaa !51
  %12 = load ptr, ptr %5, align 8, !tbaa !51
  %13 = load i64, ptr %6, align 8, !tbaa !9
  %14 = call i64 @to_size_t(i64 noundef %13)
  call void @llvm.memmove.p0.p0.i64(ptr align 1 %11, ptr align 1 %12, i64 %14, i1 false)
  br label %15

15:                                               ; preds = %10, %9
  ret void
}

; Function Attrs: nounwind uwtable
define internal i64 @sbuf_insert_at(ptr noundef %0, ptr noundef %1, i64 noundef %2) #0 {
  %4 = alloca ptr, align 8
  %5 = alloca ptr, align 8
  %6 = alloca i64, align 8
  store ptr %0, ptr %4, align 8, !tbaa !31
  store ptr %1, ptr %5, align 8, !tbaa !11
  store i64 %2, ptr %6, align 8, !tbaa !9
  %7 = load ptr, ptr %4, align 8, !tbaa !31
  %8 = load ptr, ptr %5, align 8, !tbaa !11
  %9 = load ptr, ptr %5, align 8, !tbaa !11
  %10 = call i64 @ic_strlen(ptr noundef %9)
  %11 = load i64, ptr %6, align 8, !tbaa !9
  %12 = call i64 @sbuf_insert_at_n(ptr noundef %7, ptr noundef %8, i64 noundef %10, i64 noundef %11)
  ret i64 %12
}

; Function Attrs: nounwind uwtable
define internal void @sbuf_delete_at(ptr noundef %0, i64 noundef %1, i64 noundef %2) #0 {
  %4 = alloca ptr, align 8
  %5 = alloca i64, align 8
  %6 = alloca i64, align 8
  store ptr %0, ptr %4, align 8, !tbaa !31
  store i64 %1, ptr %5, align 8, !tbaa !9
  store i64 %2, ptr %6, align 8, !tbaa !9
  %7 = load i64, ptr %5, align 8, !tbaa !9
  %8 = icmp slt i64 %7, 0
  br i1 %8, label %15, label %9

9:                                                ; preds = %3
  %10 = load i64, ptr %5, align 8, !tbaa !9
  %11 = load ptr, ptr %4, align 8, !tbaa !31
  %12 = getelementptr inbounds nuw %struct.stringbuf_s, ptr %11, i32 0, i32 2
  %13 = load i64, ptr %12, align 8, !tbaa !42
  %14 = icmp sge i64 %10, %13
  br i1 %14, label %15, label %16

15:                                               ; preds = %9, %3
  br label %62

16:                                               ; preds = %9
  %17 = load i64, ptr %5, align 8, !tbaa !9
  %18 = load i64, ptr %6, align 8, !tbaa !9
  %19 = add nsw i64 %17, %18
  %20 = load ptr, ptr %4, align 8, !tbaa !31
  %21 = getelementptr inbounds nuw %struct.stringbuf_s, ptr %20, i32 0, i32 2
  %22 = load i64, ptr %21, align 8, !tbaa !42
  %23 = icmp sgt i64 %19, %22
  br i1 %23, label %24, label %30

24:                                               ; preds = %16
  %25 = load ptr, ptr %4, align 8, !tbaa !31
  %26 = getelementptr inbounds nuw %struct.stringbuf_s, ptr %25, i32 0, i32 2
  %27 = load i64, ptr %26, align 8, !tbaa !42
  %28 = load i64, ptr %5, align 8, !tbaa !9
  %29 = sub nsw i64 %27, %28
  store i64 %29, ptr %6, align 8, !tbaa !9
  br label %30

30:                                               ; preds = %24, %16
  %31 = load ptr, ptr %4, align 8, !tbaa !31
  %32 = getelementptr inbounds nuw %struct.stringbuf_s, ptr %31, i32 0, i32 0
  %33 = load ptr, ptr %32, align 8, !tbaa !223
  %34 = load i64, ptr %5, align 8, !tbaa !9
  %35 = getelementptr inbounds i8, ptr %33, i64 %34
  %36 = load ptr, ptr %4, align 8, !tbaa !31
  %37 = getelementptr inbounds nuw %struct.stringbuf_s, ptr %36, i32 0, i32 0
  %38 = load ptr, ptr %37, align 8, !tbaa !223
  %39 = load i64, ptr %5, align 8, !tbaa !9
  %40 = getelementptr inbounds i8, ptr %38, i64 %39
  %41 = load i64, ptr %6, align 8, !tbaa !9
  %42 = getelementptr inbounds i8, ptr %40, i64 %41
  %43 = load ptr, ptr %4, align 8, !tbaa !31
  %44 = getelementptr inbounds nuw %struct.stringbuf_s, ptr %43, i32 0, i32 2
  %45 = load i64, ptr %44, align 8, !tbaa !42
  %46 = load i64, ptr %5, align 8, !tbaa !9
  %47 = sub nsw i64 %45, %46
  %48 = load i64, ptr %6, align 8, !tbaa !9
  %49 = sub nsw i64 %47, %48
  call void @ic_memmove(ptr noundef %35, ptr noundef %42, i64 noundef %49)
  %50 = load i64, ptr %6, align 8, !tbaa !9
  %51 = load ptr, ptr %4, align 8, !tbaa !31
  %52 = getelementptr inbounds nuw %struct.stringbuf_s, ptr %51, i32 0, i32 2
  %53 = load i64, ptr %52, align 8, !tbaa !42
  %54 = sub nsw i64 %53, %50
  store i64 %54, ptr %52, align 8, !tbaa !42
  %55 = load ptr, ptr %4, align 8, !tbaa !31
  %56 = getelementptr inbounds nuw %struct.stringbuf_s, ptr %55, i32 0, i32 0
  %57 = load ptr, ptr %56, align 8, !tbaa !223
  %58 = load ptr, ptr %4, align 8, !tbaa !31
  %59 = getelementptr inbounds nuw %struct.stringbuf_s, ptr %58, i32 0, i32 2
  %60 = load i64, ptr %59, align 8, !tbaa !42
  %61 = getelementptr inbounds i8, ptr %57, i64 %60
  store i8 0, ptr %61, align 1, !tbaa !13
  br label %62

62:                                               ; preds = %30, %15
  ret void
}

; Function Attrs: nounwind uwtable
define internal i64 @sbuf_len(ptr noundef %0) #0 {
  %2 = alloca i64, align 8
  %3 = alloca ptr, align 8
  store ptr %0, ptr %3, align 8, !tbaa !31
  %4 = load ptr, ptr %3, align 8, !tbaa !31
  %5 = icmp eq ptr %4, null
  br i1 %5, label %6, label %7

6:                                                ; preds = %1
  store i64 0, ptr %2, align 8
  br label %11

7:                                                ; preds = %1
  %8 = load ptr, ptr %3, align 8, !tbaa !31
  %9 = getelementptr inbounds nuw %struct.stringbuf_s, ptr %8, i32 0, i32 2
  %10 = load i64, ptr %9, align 8, !tbaa !42
  store i64 %10, ptr %2, align 8
  br label %11

11:                                               ; preds = %7, %6
  %12 = load i64, ptr %2, align 8
  ret i64 %12
}

; Function Attrs: nounwind uwtable
define internal i64 @sbuf_append(ptr noundef %0, ptr noundef %1) #0 {
  %3 = alloca ptr, align 8
  %4 = alloca ptr, align 8
  store ptr %0, ptr %3, align 8, !tbaa !31
  store ptr %1, ptr %4, align 8, !tbaa !11
  %5 = load ptr, ptr %3, align 8, !tbaa !31
  %6 = load ptr, ptr %4, align 8, !tbaa !11
  %7 = load ptr, ptr %3, align 8, !tbaa !31
  %8 = call i64 @sbuf_len(ptr noundef %7)
  %9 = call i64 @sbuf_insert_at(ptr noundef %5, ptr noundef %6, i64 noundef %8)
  ret i64 %9
}

; Function Attrs: nounwind uwtable
define internal void @sbuf_replace(ptr noundef %0, ptr noundef %1) #0 {
  %3 = alloca ptr, align 8
  %4 = alloca ptr, align 8
  store ptr %0, ptr %3, align 8, !tbaa !31
  store ptr %1, ptr %4, align 8, !tbaa !11
  %5 = load ptr, ptr %3, align 8, !tbaa !31
  call void @sbuf_clear(ptr noundef %5)
  %6 = load ptr, ptr %3, align 8, !tbaa !31
  %7 = load ptr, ptr %4, align 8, !tbaa !11
  %8 = call i64 @sbuf_append(ptr noundef %6, ptr noundef %7)
  ret void
}

; Function Attrs: nounwind uwtable
define internal void @sbuf_clear(ptr noundef %0) #0 {
  %2 = alloca ptr, align 8
  store ptr %0, ptr %2, align 8, !tbaa !31
  %3 = load ptr, ptr %2, align 8, !tbaa !31
  %4 = load ptr, ptr %2, align 8, !tbaa !31
  %5 = call i64 @sbuf_len(ptr noundef %4)
  call void @sbuf_delete_at(ptr noundef %3, i64 noundef 0, i64 noundef %5)
  ret void
}

; Function Attrs: nounwind uwtable
define internal void @editor_append_hint_help(ptr noundef %0, ptr noundef %1) #0 {
  %3 = alloca ptr, align 8
  %4 = alloca ptr, align 8
  store ptr %0, ptr %3, align 8, !tbaa !293
  store ptr %1, ptr %4, align 8, !tbaa !11
  %5 = load ptr, ptr %3, align 8, !tbaa !293
  %6 = getelementptr inbounds nuw %struct.editor_s, ptr %5, i32 0, i32 3
  %7 = load ptr, ptr %6, align 8, !tbaa !278
  call void @sbuf_clear(ptr noundef %7)
  %8 = load ptr, ptr %4, align 8, !tbaa !11
  %9 = icmp ne ptr %8, null
  br i1 %9, label %10, label %23

10:                                               ; preds = %2
  %11 = load ptr, ptr %3, align 8, !tbaa !293
  %12 = getelementptr inbounds nuw %struct.editor_s, ptr %11, i32 0, i32 3
  %13 = load ptr, ptr %12, align 8, !tbaa !278
  call void @sbuf_replace(ptr noundef %13, ptr noundef @.str.408)
  %14 = load ptr, ptr %3, align 8, !tbaa !293
  %15 = getelementptr inbounds nuw %struct.editor_s, ptr %14, i32 0, i32 3
  %16 = load ptr, ptr %15, align 8, !tbaa !278
  %17 = load ptr, ptr %4, align 8, !tbaa !11
  %18 = call i64 @sbuf_append(ptr noundef %16, ptr noundef %17)
  %19 = load ptr, ptr %3, align 8, !tbaa !293
  %20 = getelementptr inbounds nuw %struct.editor_s, ptr %19, i32 0, i32 3
  %21 = load ptr, ptr %20, align 8, !tbaa !278
  %22 = call i64 @sbuf_append(ptr noundef %21, ptr noundef @.str.409)
  br label %23

23:                                               ; preds = %10, %2
  ret void
}