; Function Attrs: nounwind uwtable
define internal fastcc void @editor_append_hint_help(ptr noundef nonnull readonly captures(none) %0, ptr noundef %1) unnamed_addr #0 {
  %3 = getelementptr inbounds nuw i8, ptr %0, i64 24
  %4 = load ptr, ptr %3, align 8, !tbaa !258
  %5 = icmp eq ptr %4, null
  br i1 %5, label %.sbuf_len.exit_crit_edge.i, label %6

.sbuf_len.exit_crit_edge.i:                       ; preds = %2
  %.pre.i = load i64, ptr inttoptr (i64 16 to ptr), align 16, !tbaa !40
  br label %sbuf_len.exit.i

6:                                                ; preds = %2
  %7 = getelementptr inbounds nuw i8, ptr %4, i64 16
  %8 = load i64, ptr %7, align 8, !tbaa !40
  br label %sbuf_len.exit.i

sbuf_len.exit.i:                                  ; preds = %6, %.sbuf_len.exit_crit_edge.i
  %9 = phi i64 [ %8, %6 ], [ %.pre.i, %.sbuf_len.exit_crit_edge.i ]
  %.0.i.i = phi i64 [ %8, %6 ], [ 0, %.sbuf_len.exit_crit_edge.i ]
  %10 = getelementptr inbounds nuw i8, ptr %4, i64 16
  %.not.i.i = icmp sgt i64 %9, 0
  br i1 %.not.i.i, label %11, label %sbuf_clear.exit

11:                                               ; preds = %sbuf_len.exit.i
  %spec.select.i.i = tail call i64 @llvm.smin.i64(i64 %.0.i.i, i64 %9)
  %12 = sub i64 %9, %spec.select.i.i
  %13 = icmp slt i64 %12, 1
  br i1 %13, label %ic_memmove.exit.i.i, label %14

14:                                               ; preds = %11
  %15 = load ptr, ptr %4, align 8, !tbaa !43
  %16 = getelementptr inbounds i8, ptr %15, i64 %spec.select.i.i
  tail call void @llvm.memmove.p0.p0.i64(ptr align 1 %15, ptr readonly align 1 %16, i64 %12, i1 false)
  %.pre.i.i = load i64, ptr %10, align 8, !tbaa !40
  %.pre2.i = sub nsw i64 %.pre.i.i, %spec.select.i.i
  br label %ic_memmove.exit.i.i

ic_memmove.exit.i.i:                              ; preds = %14, %11
  %.pre-phi.i = phi i64 [ %.pre2.i, %14 ], [ %12, %11 ]
  store i64 %.pre-phi.i, ptr %10, align 8, !tbaa !40
  %17 = load ptr, ptr %4, align 8, !tbaa !43
  %18 = getelementptr inbounds i8, ptr %17, i64 %.pre-phi.i
  store i8 0, ptr %18, align 1, !tbaa !4
  br label %sbuf_clear.exit

sbuf_clear.exit:                                  ; preds = %sbuf_len.exit.i, %ic_memmove.exit.i.i
  %.not = icmp eq ptr %1, null
  br i1 %.not, label %50, label %19

19:                                               ; preds = %sbuf_clear.exit
  %20 = load ptr, ptr %3, align 8, !tbaa !258
  %21 = icmp eq ptr %20, null
  br i1 %21, label %sbuf_len.exit.i.i, label %sbuf_len.exit.i.thread.i

sbuf_len.exit.i.i:                                ; preds = %19
  %.pre.i.i7 = load i64, ptr inttoptr (i64 16 to ptr), align 16, !tbaa !40
  %.not.i.i.i = icmp sgt i64 %.pre.i.i7, 0
  br i1 %.not.i.i.i, label %24, label %sbuf_replace.exit

sbuf_len.exit.i.thread.i:                         ; preds = %19
  %22 = getelementptr inbounds nuw i8, ptr %20, i64 16
  %23 = load i64, ptr %22, align 8, !tbaa !40
  %.not.i.i6.i = icmp sgt i64 %23, 0
  br i1 %.not.i.i6.i, label %24, label %sbuf_replace.exit

24:                                               ; preds = %sbuf_len.exit.i.thread.i, %sbuf_len.exit.i.i
  %25 = phi ptr [ %22, %sbuf_len.exit.i.thread.i ], [ inttoptr (i64 16 to ptr), %sbuf_len.exit.i.i ]
  %.0.i.i7.i = phi i64 [ %23, %sbuf_len.exit.i.thread.i ], [ 0, %sbuf_len.exit.i.i ]
  %26 = phi i64 [ %23, %sbuf_len.exit.i.thread.i ], [ %.pre.i.i7, %sbuf_len.exit.i.i ]
  %27 = tail call i64 @llvm.umin.i64(i64 %.0.i.i7.i, i64 %26)
  %28 = sub nsw i64 %26, %27
  %29 = icmp slt i64 %28, 1
  br i1 %29, label %sbuf_clear.exit.thread.i, label %30

30:                                               ; preds = %24
  %31 = load ptr, ptr %20, align 8, !tbaa !43
  %32 = getelementptr inbounds nuw i8, ptr %31, i64 %27
  tail call void @llvm.memmove.p0.p0.i64(ptr align 1 %31, ptr readonly align 1 %32, i64 %28, i1 false)
  %.pre.i.i.i = load i64, ptr %25, align 8, !tbaa !40
  %.pre2.i.i = sub nsw i64 %.pre.i.i.i, %27
  br label %sbuf_clear.exit.thread.i

sbuf_clear.exit.thread.i:                         ; preds = %30, %24
  %.pre-phi.i.i = phi i64 [ %.pre2.i.i, %30 ], [ %28, %24 ]
  store i64 %.pre-phi.i.i, ptr %25, align 8, !tbaa !40
  %33 = load ptr, ptr %20, align 8, !tbaa !43
  %34 = getelementptr inbounds i8, ptr %33, i64 %.pre-phi.i.i
  store i8 0, ptr %34, align 1, !tbaa !4
  %.pre.i6 = load i64, ptr %25, align 8, !tbaa !40
  br label %sbuf_replace.exit

sbuf_replace.exit:                                ; preds = %sbuf_len.exit.i.i, %sbuf_len.exit.i.thread.i, %sbuf_clear.exit.thread.i
  %.0.i.i4.i = phi i64 [ 0, %sbuf_len.exit.i.i ], [ %.pre.i6, %sbuf_clear.exit.thread.i ], [ %23, %sbuf_len.exit.i.thread.i ]
  %35 = tail call fastcc i64 @sbuf_insert_at_n(ptr noundef %20, ptr noundef nonnull @.str.408, i64 noundef 9, i64 noundef %.0.i.i4.i)
  %36 = load ptr, ptr %3, align 8, !tbaa !258
  %37 = icmp eq ptr %36, null
  br i1 %37, label %sbuf_append.exit, label %38

38:                                               ; preds = %sbuf_replace.exit
  %39 = getelementptr inbounds nuw i8, ptr %36, i64 16
  %40 = load i64, ptr %39, align 8, !tbaa !40
  br label %sbuf_append.exit

sbuf_append.exit:                                 ; preds = %38, %sbuf_replace.exit
  %.0.i.i9 = phi i64 [ %40, %38 ], [ 0, %sbuf_replace.exit ]
  %41 = tail call i64 @strlen(ptr noundef nonnull readonly dereferenceable(1) %1) #33
  %42 = tail call noundef range(i64 0, -9223372036854775808) i64 @llvm.smax.i64(i64 %41, i64 0)
  %43 = tail call fastcc i64 @sbuf_insert_at_n(ptr noundef %36, ptr noundef nonnull %1, i64 noundef %42, i64 noundef %.0.i.i9)
  %44 = load ptr, ptr %3, align 8, !tbaa !258
  %45 = icmp eq ptr %44, null
  br i1 %45, label %sbuf_append.exit13, label %46

46:                                               ; preds = %sbuf_append.exit
  %47 = getelementptr inbounds nuw i8, ptr %44, i64 16
  %48 = load i64, ptr %47, align 8, !tbaa !40
  br label %sbuf_append.exit13

sbuf_append.exit13:                               ; preds = %sbuf_append.exit, %46
  %.0.i.i11 = phi i64 [ %48, %46 ], [ 0, %sbuf_append.exit ]
  %49 = tail call fastcc i64 @sbuf_insert_at_n(ptr noundef %44, ptr noundef nonnull @.str.409, i64 noundef 11, i64 noundef %.0.i.i11)
  br label %50

50:                                               ; preds = %sbuf_append.exit13, %sbuf_clear.exit
  ret void
}